target datalayout = "e-m:e-p270:32:32-p271:32:32-p272:64:64-i64:64-i128:128-f80:128-n8:16:32:64-S128"
target triple = "x86_64-pc-linux-gnu"

%struct.except_stacknode = type { ptr, i32, %union.anon }
%union.anon = type { ptr }
%struct.except_cleanup = type { ptr, ptr }
%struct._packet_info = type { ptr, ptr, i32, i32, %struct.nstime_t, %struct.nstime_t, %struct.nstime_t, i8, ptr, ptr, ptr, ptr, %struct._address, %struct._address, %struct._address, %struct._address, %struct._address, %struct._address, i32, ptr, i8, [3 x i8], %struct.anon, i32, i32, i32, i32, ptr, i8, ptr, ptr, i16, i16, i32, i32, i16, i32, i32, ptr, ptr, ptr, i8, i8, i16, i16, i16, i32, i16, i16, ptr, ptr, ptr, ptr, ptr, i32, i32 }
%struct.nstime_t = type { i64, i32 }
%struct._address = type { i32, i32, ptr, ptr }
%struct.anon = type { i8, [3 x i8] }

@table_header = internal global ptr null, align 8
@hf_hdr_prot_bstr = internal global i32 0, align 4
@hf_hdr_unprot = internal global i32 0, align 4
@ett_prot_bstr = internal global i32 0, align 4
@ett_unprot = internal global i32 0, align 4

; Function Attrs: null_pointer_is_valid sspstrong uwtable
define internal i32 @dissect_cose_msg_header_map(ptr noundef %0, ptr noundef %1, ptr noundef %2, ptr noundef %3) #0 {
  %5 = alloca ptr, align 8
  %6 = alloca ptr, align 8
  %7 = alloca ptr, align 8
  %8 = alloca ptr, align 8
  %9 = alloca i32, align 4
  %10 = alloca ptr, align 8
  %11 = alloca %struct.except_stacknode, align 8
  %12 = alloca %struct.except_cleanup, align 8
  store ptr %0, ptr %5, align 8
  store ptr %1, ptr %6, align 8
  store ptr %2, ptr %7, align 8
  store ptr %3, ptr %8, align 8
  call void @llvm.lifetime.start.p0(i64 4, ptr %9) #12
  store i32 0, ptr %9, align 4
  call void @llvm.lifetime.start.p0(i64 8, ptr %10) #12
  %13 = call ptr @g_variant_new_int64(i64 noundef 1)
  store ptr %13, ptr %10, align 8
  call void @llvm.lifetime.start.p0(i64 24, ptr %11) #12
  call void @llvm.lifetime.start.p0(i64 16, ptr %12) #12
  %14 = load ptr, ptr %10, align 8
  call void @except_setup_clean(ptr noundef %11, ptr noundef %12, ptr noundef @g_variant_cleanup, ptr noundef %14)
  %15 = load ptr, ptr @table_header, align 8
  %16 = load ptr, ptr %5, align 8
  %17 = load ptr, ptr %6, align 8
  %18 = load ptr, ptr %7, align 8
  %19 = load ptr, ptr %10, align 8
  call void @dissect_header_map(ptr noundef %15, ptr noundef %16, ptr noundef %17, ptr noundef %18, ptr noundef %9, ptr noundef %19)
  %20 = call ptr @except_pop()
  %21 = getelementptr inbounds nuw %struct.except_cleanup, ptr %12, i32 0, i32 0
  %22 = load ptr, ptr %21, align 8
  %23 = getelementptr inbounds nuw %struct.except_cleanup, ptr %12, i32 0, i32 1
  %24 = load ptr, ptr %23, align 8
  call void %22(ptr noundef %24)
  call void @llvm.lifetime.end.p0(i64 16, ptr %12) #12
  call void @llvm.lifetime.end.p0(i64 24, ptr %11) #12
  %25 = load i32, ptr %9, align 4
  call void @llvm.lifetime.end.p0(i64 8, ptr %10) #12
  call void @llvm.lifetime.end.p0(i64 4, ptr %9) #12
  ret i32 %25
}

; Function Attrs: null_pointer_is_valid sspstrong uwtable
define internal void @dissect_headers(ptr noundef %0, ptr noundef %1, ptr noundef %2, ptr noundef %3) #0 {
  %5 = alloca ptr, align 8
  %6 = alloca ptr, align 8
  %7 = alloca ptr, align 8
  %8 = alloca ptr, align 8
  %9 = alloca ptr, align 8
  %10 = alloca ptr, align 8
  %11 = alloca ptr, align 8
  %12 = alloca ptr, align 8
  %13 = alloca ptr, align 8
  %14 = alloca ptr, align 8
  %15 = alloca ptr, align 8
  %16 = alloca i32, align 4
  store ptr %0, ptr %5, align 8
  store ptr %1, ptr %6, align 8
  store ptr %2, ptr %7, align 8
  store ptr %3, ptr %8, align 8
  call void @llvm.lifetime.start.p0(i64 8, ptr %9) #12
  %17 = load ptr, ptr %6, align 8
  %18 = getelementptr inbounds nuw %struct._packet_info, ptr %17, i32 0, i32 51
  %19 = load ptr, ptr %18, align 8
  %20 = load ptr, ptr %5, align 8
  %21 = load ptr, ptr %8, align 8
  %22 = call ptr @wscbor_chunk_read(ptr noundef %19, ptr noundef %20, ptr noundef %21)
  store ptr %22, ptr %9, align 8
  call void @llvm.lifetime.start.p0(i64 8, ptr %10) #12
  %23 = load ptr, ptr %6, align 8
  %24 = getelementptr inbounds nuw %struct._packet_info, ptr %23, i32 0, i32 51
  %25 = load ptr, ptr %24, align 8
  %26 = load ptr, ptr %9, align 8
  %27 = call ptr @wscbor_require_bstr(ptr noundef %25, ptr noundef %26)
  store ptr %27, ptr %10, align 8
  call void @llvm.lifetime.start.p0(i64 8, ptr %11) #12
  %28 = load ptr, ptr %7, align 8
  %29 = load i32, ptr @hf_hdr_prot_bstr, align 4
  %30 = load ptr, ptr %6, align 8
  %31 = load ptr, ptr %5, align 8
  %32 = load ptr, ptr %9, align 8
  %33 = call ptr @proto_tree_add_cbor_bstr(ptr noundef %28, i32 noundef %29, ptr noundef %30, ptr noundef %31, ptr noundef %32)
  store ptr %33, ptr %11, align 8
  %34 = load ptr, ptr %10, align 8
  %35 = icmp ne ptr %34, null
  br i1 %35, label %36, label %49

36:                                               ; preds = %4
  call void @llvm.lifetime.start.p0(i64 8, ptr %12) #12
  %37 = load ptr, ptr %11, align 8
  %38 = load i32, ptr @ett_prot_bstr, align 4
  %39 = call ptr @proto_item_add_subtree(ptr noundef %37, i32 noundef %38)
  store ptr %39, ptr %12, align 8
  %40 = load ptr, ptr %10, align 8
  %41 = call i32 @tvb_reported_length(ptr noundef %40)
  %42 = icmp ugt i32 %41, 0
  br i1 %42, label %43, label %48

43:                                               ; preds = %36
  %44 = load ptr, ptr %10, align 8
  %45 = load ptr, ptr %6, align 8
  %46 = load ptr, ptr %12, align 8
  %47 = call i32 @dissect_cose_msg_header_map(ptr noundef %44, ptr noundef %45, ptr noundef %46, ptr noundef null)
  br label %48

48:                                               ; preds = %43, %36
  call void @llvm.lifetime.end.p0(i64 8, ptr %12) #12
  br label %49

49:                                               ; preds = %48, %4
  call void @llvm.lifetime.start.p0(i64 8, ptr %13) #12
  %50 = load ptr, ptr %5, align 8
  %51 = load ptr, ptr %8, align 8
  %52 = load i32, ptr %51, align 4
  %53 = call ptr @tvb_new_subset_remaining(ptr noundef %50, i32 noundef %52)
  store ptr %53, ptr %13, align 8
  call void @llvm.lifetime.start.p0(i64 8, ptr %14) #12
  %54 = load ptr, ptr %7, align 8
  %55 = load i32, ptr @hf_hdr_unprot, align 4
  %56 = load ptr, ptr %13, align 8
  %57 = call ptr @proto_tree_add_item(ptr noundef %54, i32 noundef %55, ptr noundef %56, i32 noundef 0, i32 noundef -1, i32 noundef 0)
  store ptr %57, ptr %14, align 8
  call void @llvm.lifetime.start.p0(i64 8, ptr %15) #12
  %58 = load ptr, ptr %14, align 8
  %59 = load i32, ptr @ett_unprot, align 4
  %60 = call ptr @proto_item_add_subtree(ptr noundef %58, i32 noundef %59)
  store ptr %60, ptr %15, align 8
  call void @llvm.lifetime.start.p0(i64 4, ptr %16) #12
  %61 = load ptr, ptr %13, align 8
  %62 = load ptr, ptr %6, align 8
  %63 = load ptr, ptr %15, align 8
  %64 = call i32 @dissect_cose_msg_header_map(ptr noundef %61, ptr noundef %62, ptr noundef %63, ptr noundef null)
  store i32 %64, ptr %16, align 4
  %65 = load i32, ptr %16, align 4
  %66 = load ptr, ptr %8, align 8
  %67 = load i32, ptr %66, align 4
  %68 = add i32 %67, %65
  store i32 %68, ptr %66, align 4
  %69 = load ptr, ptr %14, align 8
  %70 = load i32, ptr %16, align 4
  call void @proto_item_set_len(ptr noundef %69, i32 noundef %70)
  call void @llvm.lifetime.end.p0(i64 4, ptr %16) #12
  call void @llvm.lifetime.end.p0(i64 8, ptr %15) #12
  call void @llvm.lifetime.end.p0(i64 8, ptr %14) #12
  call void @llvm.lifetime.end.p0(i64 8, ptr %13) #12
  call void @llvm.lifetime.end.p0(i64 8, ptr %11) #12
  call void @llvm.lifetime.end.p0(i64 8, ptr %10) #12
  call void @llvm.lifetime.end.p0(i64 8, ptr %9) #12
  ret void
}