; Function Attrs: null_pointer_is_valid sspstrong uwtable
define internal fastcc void @dissect_headers(ptr noundef %0, ptr noundef %1, ptr noundef %2, ptr noundef %3) unnamed_addr #0 {
  %5 = alloca i32, align 4
  %6 = alloca %struct.except_stacknode, align 8
  %7 = alloca %struct.except_cleanup, align 8
  %8 = alloca i32, align 4
  %9 = alloca %struct.except_stacknode, align 8
  %10 = alloca %struct.except_cleanup, align 8
  %11 = getelementptr inbounds nuw i8, ptr %1, i64 408
  %12 = load ptr, ptr %11, align 8
  %13 = tail call ptr @wscbor_chunk_read(ptr noundef %12, ptr noundef %0, ptr noundef %3)
  %14 = load ptr, ptr %11, align 8
  %15 = tail call ptr @wscbor_require_bstr(ptr noundef %14, ptr noundef %13)
  %16 = load i32, ptr @hf_hdr_prot_bstr, align 4
  %17 = tail call ptr @proto_tree_add_cbor_bstr(ptr noundef %2, i32 noundef %16, ptr noundef %1, ptr noundef %0, ptr noundef %13)
  %.not = icmp eq ptr %15, null
  br i1 %.not, label %29, label %18

18:                                               ; preds = %4
  %19 = load i32, ptr @ett_prot_bstr, align 4
  %20 = tail call ptr @proto_item_add_subtree(ptr noundef %17, i32 noundef %19)
  %21 = tail call i32 @tvb_reported_length(ptr noundef nonnull %15)
  %.not26 = icmp eq i32 %21, 0
  br i1 %.not26, label %29, label %22

22:                                               ; preds = %18
  call void @llvm.lifetime.start.p0(i64 4, ptr nonnull %8) #8
  store i32 0, ptr %8, align 4
  %23 = tail call ptr @g_variant_new_int64(i64 noundef 1)
  call void @llvm.lifetime.start.p0(i64 24, ptr nonnull %9) #8
  call void @llvm.lifetime.start.p0(i64 16, ptr nonnull %10) #8
  call void @except_setup_clean(ptr noundef nonnull %9, ptr noundef nonnull %10, ptr noundef nonnull @g_variant_cleanup, ptr noundef %23)
  %24 = load ptr, ptr @table_header, align 8
  call fastcc void @dissect_header_map(ptr noundef %24, ptr noundef nonnull %15, ptr noundef %1, ptr noundef %20, ptr noundef nonnull %8, ptr noundef %23)
  %25 = call ptr @except_pop()
  %26 = load ptr, ptr %10, align 8
  %27 = getelementptr inbounds nuw i8, ptr %10, i64 8
  %28 = load ptr, ptr %27, align 8
  call void %26(ptr noundef %28)
  call void @llvm.lifetime.end.p0(i64 16, ptr nonnull %10) #8
  call void @llvm.lifetime.end.p0(i64 24, ptr nonnull %9) #8
  call void @llvm.lifetime.end.p0(i64 4, ptr nonnull %8) #8
  br label %29

29:                                               ; preds = %18, %22, %4
  %30 = load i32, ptr %3, align 4
  %31 = call ptr @tvb_new_subset_remaining(ptr noundef %0, i32 noundef %30)
  %32 = load i32, ptr @hf_hdr_unprot, align 4
  %33 = call ptr @proto_tree_add_item(ptr noundef %2, i32 noundef %32, ptr noundef %31, i32 noundef 0, i32 noundef -1, i32 noundef 0)
  %34 = load i32, ptr @ett_unprot, align 4
  %35 = call ptr @proto_item_add_subtree(ptr noundef %33, i32 noundef %34)
  call void @llvm.lifetime.start.p0(i64 4, ptr nonnull %5) #8
  store i32 0, ptr %5, align 4
  %36 = call ptr @g_variant_new_int64(i64 noundef 1)
  call void @llvm.lifetime.start.p0(i64 24, ptr nonnull %6) #8
  call void @llvm.lifetime.start.p0(i64 16, ptr nonnull %7) #8
  call void @except_setup_clean(ptr noundef nonnull %6, ptr noundef nonnull %7, ptr noundef nonnull @g_variant_cleanup, ptr noundef %36)
  %37 = load ptr, ptr @table_header, align 8
  call fastcc void @dissect_header_map(ptr noundef %37, ptr noundef %31, ptr noundef %1, ptr noundef %35, ptr noundef nonnull %5, ptr noundef %36)
  %38 = call ptr @except_pop()
  %39 = load ptr, ptr %7, align 8
  %40 = getelementptr inbounds nuw i8, ptr %7, i64 8
  %41 = load ptr, ptr %40, align 8
  call void %39(ptr noundef %41)
  call void @llvm.lifetime.end.p0(i64 16, ptr nonnull %7) #8
  call void @llvm.lifetime.end.p0(i64 24, ptr nonnull %6) #8
  %42 = load i32, ptr %5, align 4
  call void @llvm.lifetime.end.p0(i64 4, ptr nonnull %5) #8
  %43 = load i32, ptr %3, align 4
  %44 = add i32 %43, %42
  store i32 %44, ptr %3, align 4
  call void @proto_item_set_len(ptr noundef %33, i32 noundef %42)
  ret void
}